
_main:

;D2.c,1 :: 		void main() {
;D2.c,2 :: 		TRISB = 0x00;
	CLRF       TRISB+0
;D2.c,3 :: 		TRISA = 0x1F;
	MOVLW      31
	MOVWF      TRISA+0
;D2.c,4 :: 		PORTB = 0x00;
	CLRF       PORTB+0
;D2.c,5 :: 		do
L_main0:
;D2.c,7 :: 		PORTB = 0b00000001;
	MOVLW      1
	MOVWF      PORTB+0
;D2.c,8 :: 		Delay_ms(500);
	MOVLW      6
	MOVWF      R11+0
	MOVLW      19
	MOVWF      R12+0
	MOVLW      173
	MOVWF      R13+0
L_main3:
	DECFSZ     R13+0, 1
	GOTO       L_main3
	DECFSZ     R12+0, 1
	GOTO       L_main3
	DECFSZ     R11+0, 1
	GOTO       L_main3
	NOP
	NOP
;D2.c,9 :: 		PORTB = 0b00000011;
	MOVLW      3
	MOVWF      PORTB+0
;D2.c,10 :: 		Delay_ms(500);
	MOVLW      6
	MOVWF      R11+0
	MOVLW      19
	MOVWF      R12+0
	MOVLW      173
	MOVWF      R13+0
L_main4:
	DECFSZ     R13+0, 1
	GOTO       L_main4
	DECFSZ     R12+0, 1
	GOTO       L_main4
	DECFSZ     R11+0, 1
	GOTO       L_main4
	NOP
	NOP
;D2.c,11 :: 		PORTB = 0b00000111;
	MOVLW      7
	MOVWF      PORTB+0
;D2.c,12 :: 		Delay_ms(500);
	MOVLW      6
	MOVWF      R11+0
	MOVLW      19
	MOVWF      R12+0
	MOVLW      173
	MOVWF      R13+0
L_main5:
	DECFSZ     R13+0, 1
	GOTO       L_main5
	DECFSZ     R12+0, 1
	GOTO       L_main5
	DECFSZ     R11+0, 1
	GOTO       L_main5
	NOP
	NOP
;D2.c,13 :: 		PORTB = 0b00001111;
	MOVLW      15
	MOVWF      PORTB+0
;D2.c,14 :: 		Delay_ms(500);
	MOVLW      6
	MOVWF      R11+0
	MOVLW      19
	MOVWF      R12+0
	MOVLW      173
	MOVWF      R13+0
L_main6:
	DECFSZ     R13+0, 1
	GOTO       L_main6
	DECFSZ     R12+0, 1
	GOTO       L_main6
	DECFSZ     R11+0, 1
	GOTO       L_main6
	NOP
	NOP
;D2.c,15 :: 		PORTB = 0b00011111;
	MOVLW      31
	MOVWF      PORTB+0
;D2.c,16 :: 		Delay_ms(500);
	MOVLW      6
	MOVWF      R11+0
	MOVLW      19
	MOVWF      R12+0
	MOVLW      173
	MOVWF      R13+0
L_main7:
	DECFSZ     R13+0, 1
	GOTO       L_main7
	DECFSZ     R12+0, 1
	GOTO       L_main7
	DECFSZ     R11+0, 1
	GOTO       L_main7
	NOP
	NOP
;D2.c,17 :: 		PORTB = 0b00111111;
	MOVLW      63
	MOVWF      PORTB+0
;D2.c,18 :: 		Delay_ms(500);
	MOVLW      6
	MOVWF      R11+0
	MOVLW      19
	MOVWF      R12+0
	MOVLW      173
	MOVWF      R13+0
L_main8:
	DECFSZ     R13+0, 1
	GOTO       L_main8
	DECFSZ     R12+0, 1
	GOTO       L_main8
	DECFSZ     R11+0, 1
	GOTO       L_main8
	NOP
	NOP
;D2.c,19 :: 		PORTB = 0b01111111;
	MOVLW      127
	MOVWF      PORTB+0
;D2.c,20 :: 		Delay_ms(500);
	MOVLW      6
	MOVWF      R11+0
	MOVLW      19
	MOVWF      R12+0
	MOVLW      173
	MOVWF      R13+0
L_main9:
	DECFSZ     R13+0, 1
	GOTO       L_main9
	DECFSZ     R12+0, 1
	GOTO       L_main9
	DECFSZ     R11+0, 1
	GOTO       L_main9
	NOP
	NOP
;D2.c,21 :: 		PORTB = 0b11111111;
	MOVLW      255
	MOVWF      PORTB+0
;D2.c,22 :: 		Delay_ms(500);
	MOVLW      6
	MOVWF      R11+0
	MOVLW      19
	MOVWF      R12+0
	MOVLW      173
	MOVWF      R13+0
L_main10:
	DECFSZ     R13+0, 1
	GOTO       L_main10
	DECFSZ     R12+0, 1
	GOTO       L_main10
	DECFSZ     R11+0, 1
	GOTO       L_main10
	NOP
	NOP
;D2.c,23 :: 		PORTB = 0b01111111;
	MOVLW      127
	MOVWF      PORTB+0
;D2.c,24 :: 		Delay_ms(500);
	MOVLW      6
	MOVWF      R11+0
	MOVLW      19
	MOVWF      R12+0
	MOVLW      173
	MOVWF      R13+0
L_main11:
	DECFSZ     R13+0, 1
	GOTO       L_main11
	DECFSZ     R12+0, 1
	GOTO       L_main11
	DECFSZ     R11+0, 1
	GOTO       L_main11
	NOP
	NOP
;D2.c,25 :: 		PORTB = 0b00111111;
	MOVLW      63
	MOVWF      PORTB+0
;D2.c,26 :: 		Delay_ms(500);
	MOVLW      6
	MOVWF      R11+0
	MOVLW      19
	MOVWF      R12+0
	MOVLW      173
	MOVWF      R13+0
L_main12:
	DECFSZ     R13+0, 1
	GOTO       L_main12
	DECFSZ     R12+0, 1
	GOTO       L_main12
	DECFSZ     R11+0, 1
	GOTO       L_main12
	NOP
	NOP
;D2.c,27 :: 		PORTB = 0b00011111;
	MOVLW      31
	MOVWF      PORTB+0
;D2.c,28 :: 		Delay_ms(500);
	MOVLW      6
	MOVWF      R11+0
	MOVLW      19
	MOVWF      R12+0
	MOVLW      173
	MOVWF      R13+0
L_main13:
	DECFSZ     R13+0, 1
	GOTO       L_main13
	DECFSZ     R12+0, 1
	GOTO       L_main13
	DECFSZ     R11+0, 1
	GOTO       L_main13
	NOP
	NOP
;D2.c,29 :: 		PORTB = 0b00001111;
	MOVLW      15
	MOVWF      PORTB+0
;D2.c,30 :: 		Delay_ms(500);
	MOVLW      6
	MOVWF      R11+0
	MOVLW      19
	MOVWF      R12+0
	MOVLW      173
	MOVWF      R13+0
L_main14:
	DECFSZ     R13+0, 1
	GOTO       L_main14
	DECFSZ     R12+0, 1
	GOTO       L_main14
	DECFSZ     R11+0, 1
	GOTO       L_main14
	NOP
	NOP
;D2.c,31 :: 		PORTB = 0b00000111;
	MOVLW      7
	MOVWF      PORTB+0
;D2.c,32 :: 		Delay_ms(500);
	MOVLW      6
	MOVWF      R11+0
	MOVLW      19
	MOVWF      R12+0
	MOVLW      173
	MOVWF      R13+0
L_main15:
	DECFSZ     R13+0, 1
	GOTO       L_main15
	DECFSZ     R12+0, 1
	GOTO       L_main15
	DECFSZ     R11+0, 1
	GOTO       L_main15
	NOP
	NOP
;D2.c,33 :: 		PORTB = 0b00000011;
	MOVLW      3
	MOVWF      PORTB+0
;D2.c,34 :: 		Delay_ms(500);
	MOVLW      6
	MOVWF      R11+0
	MOVLW      19
	MOVWF      R12+0
	MOVLW      173
	MOVWF      R13+0
L_main16:
	DECFSZ     R13+0, 1
	GOTO       L_main16
	DECFSZ     R12+0, 1
	GOTO       L_main16
	DECFSZ     R11+0, 1
	GOTO       L_main16
	NOP
	NOP
;D2.c,35 :: 		PORTB = 0b00000001;
	MOVLW      1
	MOVWF      PORTB+0
;D2.c,36 :: 		Delay_ms(500);
	MOVLW      6
	MOVWF      R11+0
	MOVLW      19
	MOVWF      R12+0
	MOVLW      173
	MOVWF      R13+0
L_main17:
	DECFSZ     R13+0, 1
	GOTO       L_main17
	DECFSZ     R12+0, 1
	GOTO       L_main17
	DECFSZ     R11+0, 1
	GOTO       L_main17
	NOP
	NOP
;D2.c,37 :: 		}while(1);
	GOTO       L_main0
;D2.c,38 :: 		}
L_end_main:
	GOTO       $+0
; end of _main
